; Function Attrs: mustprogress nounwind uwtable
define internal fastcc void @_ZN6hermes12_GLOBAL__N_15GenJS5visitEPNS_6ESTree28TaggedTemplateExpressionNodeE(ptr noundef nonnull align 8 captures(none) dereferenceable(16) %this, ptr noundef readonly %node) unnamed_addr #0 align 2 {
entry:
  %_tag = getelementptr inbounds nuw i8, ptr %node, i64 48
  %0 = load ptr, ptr %_tag, align 8
  %tobool.not.i = icmp eq ptr %0, null
  br i1 %tobool.not.i, label %_ZN6hermes12_GLOBAL__N_15GenJS10printChildEPNS_6ESTree4NodeES4_NS0_8ChildPosE.exit, label %if.end.i

if.end.i:                                         ; preds = %entry
  %1 = getelementptr inbounds nuw i8, ptr %this, i64 8
  %this.val.i = load i8, ptr %1, align 8
  %call.i = tail call fastcc noundef i32 @_ZN6hermes12_GLOBAL__N_15GenJS10needParensEPNS_6ESTree4NodeES4_NS0_8ChildPosE(i8 %this.val.i, ptr noundef nonnull %node, ptr noundef nonnull %0, i32 noundef 0)
  switch i32 %call.i, label %if.end6.i.thread [
    i32 1, label %if.then.i
    i32 2, label %if.then3.i
  ]

if.then.i:                                        ; preds = %if.end.i
  %2 = load ptr, ptr %this, align 8
  %OutBufCur.i.i = getelementptr inbounds nuw i8, ptr %2, i64 24
  %3 = load ptr, ptr %OutBufCur.i.i, align 8
  %OutBufEnd.i.i = getelementptr inbounds nuw i8, ptr %2, i64 16
  %4 = load ptr, ptr %OutBufEnd.i.i, align 8
  %cmp.not.i.i = icmp ult ptr %3, %4
  br i1 %cmp.not.i.i, label %if.end.i.i, label %if.then.i.i

if.then.i.i:                                      ; preds = %if.then.i
  %call.i.i = tail call noundef nonnull align 8 dereferenceable(36) ptr @_ZN4llvh11raw_ostream5writeEh(ptr noundef nonnull align 8 dereferenceable(36) %2, i8 noundef zeroext 40) #12
  br label %if.then8.i

if.end.i.i:                                       ; preds = %if.then.i
  %incdec.ptr.i.i = getelementptr inbounds nuw i8, ptr %3, i64 1
  store ptr %incdec.ptr.i.i, ptr %OutBufCur.i.i, align 8
  store i8 40, ptr %3, align 1
  br label %if.then8.i

if.then3.i:                                       ; preds = %if.end.i
  %5 = load ptr, ptr %this, align 8
  %OutBufCur.i3.i = getelementptr inbounds nuw i8, ptr %5, i64 24
  %6 = load ptr, ptr %OutBufCur.i3.i, align 8
  %OutBufEnd.i4.i = getelementptr inbounds nuw i8, ptr %5, i64 16
  %7 = load ptr, ptr %OutBufEnd.i4.i, align 8
  %cmp.not.i5.i = icmp ult ptr %6, %7
  br i1 %cmp.not.i5.i, label %if.end.i9.i, label %if.then.i6.i

if.then.i6.i:                                     ; preds = %if.then3.i
  %call.i7.i = tail call noundef nonnull align 8 dereferenceable(36) ptr @_ZN4llvh11raw_ostream5writeEh(ptr noundef nonnull align 8 dereferenceable(36) %5, i8 noundef zeroext 32) #12
  br label %if.end6.i.thread

if.end.i9.i:                                      ; preds = %if.then3.i
  %incdec.ptr.i10.i = getelementptr inbounds nuw i8, ptr %6, i64 1
  store ptr %incdec.ptr.i10.i, ptr %OutBufCur.i3.i, align 8
  store i8 32, ptr %6, align 1
  br label %if.end6.i.thread

if.end6.i.thread:                                 ; preds = %if.end.i, %if.then.i6.i, %if.end.i9.i
  tail call fastcc void @_ZN6hermes6ESTree24RecursiveVisitorDispatchINS_12_GLOBAL__N_15GenJSELb1EE5visitERS3_PNS0_4NodeES7_(ptr noundef nonnull align 8 dereferenceable(16) %this, ptr noundef nonnull %0)
  br label %_ZN6hermes12_GLOBAL__N_15GenJS10printChildEPNS_6ESTree4NodeES4_NS0_8ChildPosE.exit

if.then8.i:                                       ; preds = %if.end.i.i, %if.then.i.i
  tail call fastcc void @_ZN6hermes6ESTree24RecursiveVisitorDispatchINS_12_GLOBAL__N_15GenJSELb1EE5visitERS3_PNS0_4NodeES7_(ptr noundef nonnull align 8 dereferenceable(16) %this, ptr noundef nonnull %0)
  %8 = load ptr, ptr %this, align 8
  %OutBufCur.i13.i = getelementptr inbounds nuw i8, ptr %8, i64 24
  %9 = load ptr, ptr %OutBufCur.i13.i, align 8
  %OutBufEnd.i14.i = getelementptr inbounds nuw i8, ptr %8, i64 16
  %10 = load ptr, ptr %OutBufEnd.i14.i, align 8
  %cmp.not.i15.i = icmp ult ptr %9, %10
  br i1 %cmp.not.i15.i, label %if.end.i19.i, label %if.then.i16.i

if.then.i16.i:                                    ; preds = %if.then8.i
  %call.i17.i = tail call noundef nonnull align 8 dereferenceable(36) ptr @_ZN4llvh11raw_ostream5writeEh(ptr noundef nonnull align 8 dereferenceable(36) %8, i8 noundef zeroext 41) #12
  br label %_ZN6hermes12_GLOBAL__N_15GenJS10printChildEPNS_6ESTree4NodeES4_NS0_8ChildPosE.exit

if.end.i19.i:                                     ; preds = %if.then8.i
  %incdec.ptr.i20.i = getelementptr inbounds nuw i8, ptr %9, i64 1
  store ptr %incdec.ptr.i20.i, ptr %OutBufCur.i13.i, align 8
  store i8 41, ptr %9, align 1
  br label %_ZN6hermes12_GLOBAL__N_15GenJS10printChildEPNS_6ESTree4NodeES4_NS0_8ChildPosE.exit

_ZN6hermes12_GLOBAL__N_15GenJS10printChildEPNS_6ESTree4NodeES4_NS0_8ChildPosE.exit: ; preds = %if.end6.i.thread, %if.end.i19.i, %if.then.i16.i, %entry
  %_quasi = getelementptr inbounds nuw i8, ptr %node, i64 56
  %11 = load ptr, ptr %_quasi, align 8
  %tobool.not.i4 = icmp eq ptr %11, null
  br i1 %tobool.not.i4, label %_ZN6hermes12_GLOBAL__N_15GenJS10printChildEPNS_6ESTree4NodeES4_NS0_8ChildPosE.exit8, label %if.end.i5

if.end.i5:                                        ; preds = %_ZN6hermes12_GLOBAL__N_15GenJS10printChildEPNS_6ESTree4NodeES4_NS0_8ChildPosE.exit
  %12 = getelementptr inbounds nuw i8, ptr %this, i64 8
  %this.val.i6 = load i8, ptr %12, align 8
  %call.i7 = tail call fastcc noundef i32 @_ZN6hermes12_GLOBAL__N_15GenJS10needParensEPNS_6ESTree4NodeES4_NS0_8ChildPosE(i8 %this.val.i6, ptr noundef nonnull %node, ptr noundef nonnull %11, i32 noundef 2)
  switch i32 %call.i7, label %if.end6.i12.thread [
    i32 1, label %if.then.i34
    i32 2, label %if.then3.i24
  ]

if.then.i34:                                      ; preds = %if.end.i5
  %13 = load ptr, ptr %this, align 8
  %OutBufCur.i.i35 = getelementptr inbounds nuw i8, ptr %13, i64 24
  %14 = load ptr, ptr %OutBufCur.i.i35, align 8
  %OutBufEnd.i.i36 = getelementptr inbounds nuw i8, ptr %13, i64 16
  %15 = load ptr, ptr %OutBufEnd.i.i36, align 8
  %cmp.not.i.i37 = icmp ult ptr %14, %15
  br i1 %cmp.not.i.i37, label %if.end.i.i42, label %if.then.i.i38

if.then.i.i38:                                    ; preds = %if.then.i34
  %call.i.i39 = tail call noundef nonnull align 8 dereferenceable(36) ptr @_ZN4llvh11raw_ostream5writeEh(ptr noundef nonnull align 8 dereferenceable(36) %13, i8 noundef zeroext 40) #12
  br label %if.then8.i14

if.end.i.i42:                                     ; preds = %if.then.i34
  %incdec.ptr.i.i43 = getelementptr inbounds nuw i8, ptr %14, i64 1
  store ptr %incdec.ptr.i.i43, ptr %OutBufCur.i.i35, align 8
  store i8 40, ptr %14, align 1
  br label %if.then8.i14

if.then3.i24:                                     ; preds = %if.end.i5
  %16 = load ptr, ptr %this, align 8
  %OutBufCur.i3.i25 = getelementptr inbounds nuw i8, ptr %16, i64 24
  %17 = load ptr, ptr %OutBufCur.i3.i25, align 8
  %OutBufEnd.i4.i26 = getelementptr inbounds nuw i8, ptr %16, i64 16
  %18 = load ptr, ptr %OutBufEnd.i4.i26, align 8
  %cmp.not.i5.i27 = icmp ult ptr %17, %18
  br i1 %cmp.not.i5.i27, label %if.end.i9.i32, label %if.then.i6.i28

if.then.i6.i28:                                   ; preds = %if.then3.i24
  %call.i7.i29 = tail call noundef nonnull align 8 dereferenceable(36) ptr @_ZN4llvh11raw_ostream5writeEh(ptr noundef nonnull align 8 dereferenceable(36) %16, i8 noundef zeroext 32) #12
  br label %if.end6.i12.thread

if.end.i9.i32:                                    ; preds = %if.then3.i24
  %incdec.ptr.i10.i33 = getelementptr inbounds nuw i8, ptr %17, i64 1
  store ptr %incdec.ptr.i10.i33, ptr %OutBufCur.i3.i25, align 8
  store i8 32, ptr %17, align 1
  br label %if.end6.i12.thread

if.end6.i12.thread:                               ; preds = %if.end.i5, %if.then.i6.i28, %if.end.i9.i32
  tail call fastcc void @_ZN6hermes6ESTree24RecursiveVisitorDispatchINS_12_GLOBAL__N_15GenJSELb1EE5visitERS3_PNS0_4NodeES7_(ptr noundef nonnull align 8 dereferenceable(16) %this, ptr noundef nonnull %11)
  br label %_ZN6hermes12_GLOBAL__N_15GenJS10printChildEPNS_6ESTree4NodeES4_NS0_8ChildPosE.exit8

if.then8.i14:                                     ; preds = %if.end.i.i42, %if.then.i.i38
  tail call fastcc void @_ZN6hermes6ESTree24RecursiveVisitorDispatchINS_12_GLOBAL__N_15GenJSELb1EE5visitERS3_PNS0_4NodeES7_(ptr noundef nonnull align 8 dereferenceable(16) %this, ptr noundef nonnull %11)
  %19 = load ptr, ptr %this, align 8
  %OutBufCur.i13.i15 = getelementptr inbounds nuw i8, ptr %19, i64 24
  %20 = load ptr, ptr %OutBufCur.i13.i15, align 8
  %OutBufEnd.i14.i16 = getelementptr inbounds nuw i8, ptr %19, i64 16
  %21 = load ptr, ptr %OutBufEnd.i14.i16, align 8
  %cmp.not.i15.i17 = icmp ult ptr %20, %21
  br i1 %cmp.not.i15.i17, label %if.end.i19.i22, label %if.then.i16.i18

if.then.i16.i18:                                  ; preds = %if.then8.i14
  %call.i17.i19 = tail call noundef nonnull align 8 dereferenceable(36) ptr @_ZN4llvh11raw_ostream5writeEh(ptr noundef nonnull align 8 dereferenceable(36) %19, i8 noundef zeroext 41) #12
  br label %_ZN6hermes12_GLOBAL__N_15GenJS10printChildEPNS_6ESTree4NodeES4_NS0_8ChildPosE.exit8

if.end.i19.i22:                                   ; preds = %if.then8.i14
  %incdec.ptr.i20.i23 = getelementptr inbounds nuw i8, ptr %20, i64 1
  store ptr %incdec.ptr.i20.i23, ptr %OutBufCur.i13.i15, align 8
  store i8 41, ptr %20, align 1
  br label %_ZN6hermes12_GLOBAL__N_15GenJS10printChildEPNS_6ESTree4NodeES4_NS0_8ChildPosE.exit8

_ZN6hermes12_GLOBAL__N_15GenJS10printChildEPNS_6ESTree4NodeES4_NS0_8ChildPosE.exit8: ; preds = %if.end6.i12.thread, %if.end.i19.i22, %if.then.i16.i18, %_ZN6hermes12_GLOBAL__N_15GenJS10printChildEPNS_6ESTree4NodeES4_NS0_8ChildPosE.exit
  ret void
}